; Function Attrs: mustprogress nofree nounwind willreturn memory(read, inaccessiblemem: none) uwtable
define dso_local noundef zeroext i1 @_ZNK4node4quic3CIDneERKS1_(ptr noundef nonnull readonly align 8 dereferenceable(48) %this, ptr noundef nonnull readonly align 8 dereferenceable(48) %other) local_unnamed_addr #6 align 2 {
entry:
  %cmp.i = icmp eq ptr %this, %other
  br i1 %cmp.i, label %_ZNK4node4quic3CIDeqERKS1_.exit, label %lor.lhs.false.i

lor.lhs.false.i:                                  ; preds = %entry
  %ptr_.i.i = getelementptr inbounds i8, ptr %this, i64 40
  %0 = load ptr, ptr %ptr_.i.i, align 8
  %1 = load i64, ptr %0, align 8
  %cmp2.i = icmp eq i64 %1, 0
  %ptr_.i4.i = getelementptr inbounds i8, ptr %other, i64 40
  %2 = load ptr, ptr %ptr_.i4.i, align 8
  %3 = load i64, ptr %2, align 8
  %cmp4.i = icmp eq i64 %3, 0
  %or.cond.i = select i1 %cmp2.i, i1 %cmp4.i, i1 false
  br i1 %or.cond.i, label %_ZNK4node4quic3CIDeqERKS1_.exit, label %if.end.i

if.end.i:                                         ; preds = %lor.lhs.false.i
  %cmp7.not.i = icmp eq i64 %1, %3
  br i1 %cmp7.not.i, label %if.end9.i, label %_ZNK4node4quic3CIDeqERKS1_.exit

if.end9.i:                                        ; preds = %if.end.i
  %data.i = getelementptr inbounds i8, ptr %0, i64 8
  %data11.i = getelementptr inbounds i8, ptr %2, i64 8
  %bcmp.i = tail call i32 @bcmp(ptr nonnull %data.i, ptr nonnull %data11.i, i64 %1)
  %cmp15.i = icmp ne i32 %bcmp.i, 0
  br label %_ZNK4node4quic3CIDeqERKS1_.exit

_ZNK4node4quic3CIDeqERKS1_.exit:                  ; preds = %entry, %lor.lhs.false.i, %if.end.i, %if.end9.i
  %retval.0.i = phi i1 [ %cmp15.i, %if.end9.i ], [ false, %entry ], [ true, %if.end.i ], [ false, %lor.lhs.false.i ]
  ret i1 %retval.0.i
}